; Function Attrs: mustprogress nounwind uwtable
define hidden void @_ZN11ConstMethod18copy_stackmap_dataEP15ClassLoaderDataPhiP10JavaThread(ptr nocapture noundef nonnull writeonly align 8 dereferenceable(52) %0, ptr noundef %1, ptr nocapture noundef readonly %2, i32 noundef %3, ptr noundef %4) local_unnamed_addr #0 align 2 {
  %6 = tail call i32 @llvm.smax.i32(i32 %3, i32 1)
  %narrow.i.i.i = add nuw i32 %6, 14
  %7 = lshr i32 %narrow.i.i.i, 3
  %8 = zext nneg i32 %7 to i64
  %9 = tail call noundef ptr @_ZN9Metaspace8allocateEP15ClassLoaderDatamN12MetaspaceObj4TypeEP10JavaThread(ptr noundef %1, i64 noundef %8, i32 noundef 2, ptr noundef %4) #14
  %10 = icmp eq ptr %9, null
  br i1 %10, label %_ZN15MetadataFactory9new_arrayIhEEP5ArrayIT_EP15ClassLoaderDataiP10JavaThread.exit, label %11

11:                                               ; preds = %5
  store i32 %3, ptr %9, align 4
  br label %_ZN15MetadataFactory9new_arrayIhEEP5ArrayIT_EP15ClassLoaderDataiP10JavaThread.exit

_ZN15MetadataFactory9new_arrayIhEEP5ArrayIT_EP15ClassLoaderDataiP10JavaThread.exit: ; preds = %5, %11
  %12 = getelementptr inbounds i8, ptr %0, i64 16
  store ptr %9, ptr %12, align 8
  %13 = getelementptr inbounds i8, ptr %4, i64 8
  %14 = load ptr, ptr %13, align 8
  %.not = icmp eq ptr %14, null
  br i1 %.not, label %15, label %18

15:                                               ; preds = %_ZN15MetadataFactory9new_arrayIhEEP5ArrayIT_EP15ClassLoaderDataiP10JavaThread.exit
  %16 = getelementptr inbounds i8, ptr %9, i64 4
  %17 = sext i32 %3 to i64
  tail call void @llvm.memcpy.p0.p0.i64(ptr nonnull align 1 %16, ptr align 1 %2, i64 %17, i1 false)
  br label %18

18:                                               ; preds = %_ZN15MetadataFactory9new_arrayIhEEP5ArrayIT_EP15ClassLoaderDataiP10JavaThread.exit, %15
  ret void
}